target datalayout = "e-m:e-p270:32:32-p271:32:32-p272:64:64-i64:64-i128:128-f80:128-n8:16:32:64-S128"
target triple = "x86_64-pc-linux-gnu"

%struct.ggml_tensor = type { i32, ptr, [4 x i64], [4 x i64], i32, [16 x i32], i32, [10 x ptr], ptr, i64, ptr, [64 x i8], ptr, [8 x i8] }

; Function Attrs: nounwind uwtable
define zeroext i1 @ggml_is_permuted(ptr noundef %0) #5 {
  %2 = alloca ptr, align 8
  store ptr %0, ptr %2, align 8, !tbaa !54
  %3 = load ptr, ptr %2, align 8, !tbaa !54
  %4 = getelementptr inbounds nuw %struct.ggml_tensor, ptr %3, i32 0, i32 3
  %5 = getelementptr inbounds [4 x i64], ptr %4, i64 0, i64 0
  %6 = load i64, ptr %5, align 8, !tbaa !19
  %7 = load ptr, ptr %2, align 8, !tbaa !54
  %8 = getelementptr inbounds nuw %struct.ggml_tensor, ptr %7, i32 0, i32 3
  %9 = getelementptr inbounds [4 x i64], ptr %8, i64 0, i64 1
  %10 = load i64, ptr %9, align 8, !tbaa !19
  %11 = icmp ugt i64 %6, %10
  br i1 %11, label %32, label %12

12:                                               ; preds = %1
  %13 = load ptr, ptr %2, align 8, !tbaa !54
  %14 = getelementptr inbounds nuw %struct.ggml_tensor, ptr %13, i32 0, i32 3
  %15 = getelementptr inbounds [4 x i64], ptr %14, i64 0, i64 1
  %16 = load i64, ptr %15, align 8, !tbaa !19
  %17 = load ptr, ptr %2, align 8, !tbaa !54
  %18 = getelementptr inbounds nuw %struct.ggml_tensor, ptr %17, i32 0, i32 3
  %19 = getelementptr inbounds [4 x i64], ptr %18, i64 0, i64 2
  %20 = load i64, ptr %19, align 8, !tbaa !19
  %21 = icmp ugt i64 %16, %20
  br i1 %21, label %32, label %22

22:                                               ; preds = %12
  %23 = load ptr, ptr %2, align 8, !tbaa !54
  %24 = getelementptr inbounds nuw %struct.ggml_tensor, ptr %23, i32 0, i32 3
  %25 = getelementptr inbounds [4 x i64], ptr %24, i64 0, i64 2
  %26 = load i64, ptr %25, align 8, !tbaa !19
  %27 = load ptr, ptr %2, align 8, !tbaa !54
  %28 = getelementptr inbounds nuw %struct.ggml_tensor, ptr %27, i32 0, i32 3
  %29 = getelementptr inbounds [4 x i64], ptr %28, i64 0, i64 3
  %30 = load i64, ptr %29, align 8, !tbaa !19
  %31 = icmp ugt i64 %26, %30
  br label %32

32:                                               ; preds = %22, %12, %1
  %33 = phi i1 [ true, %12 ], [ true, %1 ], [ %31, %22 ]
  ret i1 %33
}